target datalayout = "e-m:e-p270:32:32-p271:32:32-p272:64:64-i64:64-i128:128-f80:128-n8:16:32:64-S128"
target triple = "x86_64-pc-linux-gnu"

%union.CPUTailQ = type { %struct.QTailQLink }
%struct.QTailQLink = type { ptr, ptr }
%struct.anon = type { i32, i32, ptr }
%union.run_on_cpu_data = type { i64 }

@cpus_queue = external global %union.CPUTailQ, align 8
@gdbserver_args = dso_local global %struct.anon zeroinitializer, align 8
@host_interrupt_signal = external global i32, align 4

; Function Attrs: nounwind sspstrong uwtable
define internal ptr @gdbserver_accept_thread(ptr noundef %0) #0 {
  %2 = alloca ptr, align 8
  %3 = alloca ptr, align 8
  %4 = alloca ptr, align 8
  %5 = alloca ptr, align 8
  %6 = alloca %union.run_on_cpu_data, align 8
  store ptr %0, ptr %2, align 8
  %7 = load i32, ptr @gdbserver_args, align 8
  %8 = load i32, ptr getelementptr inbounds nuw (%struct.anon, ptr @gdbserver_args, i32 0, i32 1), align 4
  %9 = load ptr, ptr getelementptr inbounds nuw (%struct.anon, ptr @gdbserver_args, i32 0, i32 2), align 8
  %10 = call zeroext i1 @gdbserver_accept(i32 noundef %7, i32 noundef %8, ptr noundef %9)
  br i1 %10, label %11, label %25

11:                                               ; preds = %1
  call void @llvm.lifetime.start.p0(i64 8, ptr %3) #14
  br label %12

12:                                               ; preds = %11
  br i1 false, label %13, label %14

13:                                               ; preds = %12
  call void @qemu_build_not_reached_always() #17, !srcloc !14
  unreachable

14:                                               ; preds = %12
  call void @llvm.lifetime.start.p0(i64 8, ptr %4) #14
  store ptr null, ptr %4, align 8, !annotation !4
  %15 = load atomic i64, ptr @cpus_queue monotonic, align 8
  store i64 %15, ptr %4, align 8
  call void asm sideeffect "", "~{memory},~{dirflag},~{fpsr},~{flags}"() #14, !srcloc !15
  %16 = load ptr, ptr %4, align 8
  store ptr %16, ptr %5, align 8
  call void @llvm.lifetime.end.p0(i64 8, ptr %4) #14
  %17 = load ptr, ptr %5, align 8
  store ptr %17, ptr %3, align 8
  %18 = load ptr, ptr %3, align 8
  store ptr null, ptr %6, align 8
  %19 = getelementptr inbounds nuw %union.run_on_cpu_data, ptr %6, i32 0, i32 0
  %20 = load i64, ptr %19, align 8
  call void @async_safe_run_on_cpu(ptr noundef %18, ptr noundef @do_gdb_handlesig, i64 %20)
  %21 = load ptr, ptr %3, align 8
  %22 = call i32 @gdb_get_cpu_index(ptr noundef %21)
  %23 = load i32, ptr @host_interrupt_signal, align 4
  %24 = call i32 @qemu_kill_thread(i32 noundef %22, i32 noundef %23)
  call void @llvm.lifetime.end.p0(i64 8, ptr %3) #14
  br label %25

25:                                               ; preds = %14, %1
  %26 = load ptr, ptr getelementptr inbounds nuw (%struct.anon, ptr @gdbserver_args, i32 0, i32 2), align 8
  call void @g_free(ptr noundef %26)
  store ptr null, ptr getelementptr inbounds nuw (%struct.anon, ptr @gdbserver_args, i32 0, i32 2), align 8
  ret ptr null
}