; Function Attrs: nounwind sspstrong uwtable
define internal noundef ptr @gdbserver_accept_thread(ptr readnone captures(none) %0) #0 {
  %2 = load i32, ptr @gdbserver_args, align 8
  %3 = load i32, ptr getelementptr inbounds nuw (i8, ptr @gdbserver_args, i64 4), align 4
  %4 = load ptr, ptr getelementptr inbounds nuw (i8, ptr @gdbserver_args, i64 8), align 8
  %5 = tail call fastcc zeroext i1 @gdbserver_accept(i32 noundef %2, i32 noundef %3, ptr noundef %4)
  br i1 %5, label %6, label %12

6:                                                ; preds = %1
  %7 = load atomic i64, ptr @cpus_queue monotonic, align 8
  %8 = inttoptr i64 %7 to ptr
  tail call void asm sideeffect "", "~{memory},~{dirflag},~{fpsr},~{flags}"() #16, !srcloc !17
  tail call void @async_safe_run_on_cpu(ptr noundef %8, ptr noundef nonnull @do_gdb_handlesig, i64 0) #16
  %9 = tail call i32 @gdb_get_cpu_index(ptr noundef %8) #16
  %10 = load i32, ptr @host_interrupt_signal, align 4
  %11 = tail call i32 @qemu_kill_thread(i32 noundef %9, i32 noundef %10) #16
  br label %12

12:                                               ; preds = %6, %1
  %13 = load ptr, ptr getelementptr inbounds nuw (i8, ptr @gdbserver_args, i64 8), align 8
  tail call void @g_free(ptr noundef %13) #16
  store ptr null, ptr getelementptr inbounds nuw (i8, ptr @gdbserver_args, i64 8), align 8
  ret ptr null
}